; Function Attrs: nounwind uwtable
define hidden void @_glfwDestroyCursorWayland(ptr noundef readonly captures(none) %0) local_unnamed_addr #0 {
  %2 = getelementptr inbounds nuw i8, ptr %0, i64 8
  %3 = load ptr, ptr %2, align 8, !tbaa !285
  %.not = icmp eq ptr %3, null
  br i1 %.not, label %4, label %12

4:                                                ; preds = %1
  %5 = getelementptr inbounds nuw i8, ptr %0, i64 24
  %6 = load ptr, ptr %5, align 8, !tbaa !315
  %.not3 = icmp eq ptr %6, null
  br i1 %.not3, label %12, label %7

7:                                                ; preds = %4
  %8 = load ptr, ptr getelementptr inbounds nuw (i8, ptr @_glfw, i64 137528), align 8, !tbaa !136
  %9 = load ptr, ptr getelementptr inbounds nuw (i8, ptr @_glfw, i64 137520), align 8, !tbaa !93
  %10 = tail call i32 %9(ptr noundef nonnull %6) #20
  %11 = tail call ptr (ptr, i32, ptr, i32, i32, ...) %8(ptr noundef nonnull %6, i32 noundef 0, ptr noundef null, i32 noundef %10, i32 noundef 1) #20
  br label %12

12:                                               ; preds = %1, %7, %4
  ret void
}